; Function Attrs: mustprogress nofree norecurse nosync nounwind willreturn memory(argmem: write) uwtable
define void @_ZNK2cv4gapi8GBackend4Priv16auxiliaryKernelsEv(ptr dead_on_unwind noalias writable sret(%"class.cv::GKernelPackage") align 8 initializes((32, 40)) %0, ptr nonnull readnone align 8 captures(none) %1) unnamed_addr #8 align 2 {
  %3 = getelementptr inbounds nuw i8, ptr %0, i64 32
  store i64 0, ptr %3, align 8
  %4 = getelementptr inbounds nuw i8, ptr %0, i64 48
  store ptr %4, ptr %0, align 8, !tbaa !16
  %5 = getelementptr inbounds nuw i8, ptr %0, i64 8
  store i64 1, ptr %5, align 8, !tbaa !24
  %6 = getelementptr inbounds nuw i8, ptr %0, i64 16
  %7 = getelementptr inbounds nuw i8, ptr %0, i64 32
  tail call void @llvm.memset.p0.i64(ptr noundef nonnull align 8 dereferenceable(16) %6, i8 0, i64 16, i1 false)
  store float 1.000000e+00, ptr %7, align 8, !tbaa !25
  %8 = getelementptr inbounds nuw i8, ptr %0, i64 40
  tail call void @llvm.memset.p0.i64(ptr noundef nonnull align 8 dereferenceable(40) %8, i8 0, i64 40, i1 false)
  ret void
}